; ModuleID = '43/1458.c'
source_filename = "43/1458.c"
target datalayout = "e-m:e-p270:32:32-p271:32:32-p272:64:64-i64:64-f80:128-n8:16:32:64-S128"
target triple = "x86_64-pc-linux-gnu"

@.str = private unnamed_addr constant [3 x i8] c"%d\00", align 1
@.str.1 = private unnamed_addr constant [7 x i8] c"%d %d\0A\00", align 1

; Function Attrs: noinline nounwind uwtable
define dso_local i32 @main() #0 {
  %1 = alloca i32, align 4
  %2 = alloca i32, align 4
  %3 = alloca i32, align 4
  %4 = alloca i32, align 4
  %5 = alloca i32, align 4
  %6 = alloca i32, align 4
  %7 = alloca i32, align 4
  %8 = alloca i32, align 4
  %9 = alloca [20000 x i32], align 16
  store i32 0, i32* %1, align 4
  store i32 2, i32* %4, align 4
  store i32 1, i32* %6, align 4
  %10 = getelementptr inbounds [20000 x i32], [20000 x i32]* %9, i64 0, i64 0
  store i32 2, i32* %10, align 16
  %11 = getelementptr inbounds [20000 x i32], [20000 x i32]* %9, i64 0, i64 1
  store i32 3, i32* %11, align 4
  store i32 4, i32* %2, align 4
  br label %12

12:                                               ; preds = %43, %0
  %13 = load i32, i32* %2, align 4
  %14 = icmp slt i32 %13, 10000
  br i1 %14, label %15, label %46

15:                                               ; preds = %12
  store i32 1, i32* %6, align 4
  store i32 2, i32* %3, align 4
  br label %16

16:                                               ; preds = %29, %15
  %17 = load i32, i32* %3, align 4
  %18 = load i32, i32* %3, align 4
  %19 = mul nsw i32 %17, %18
  %20 = load i32, i32* %2, align 4
  %21 = icmp sle i32 %19, %20
  br i1 %21, label %22, label %32

22:                                               ; preds = %16
  %23 = load i32, i32* %2, align 4
  %24 = load i32, i32* %3, align 4
  %25 = srem i32 %23, %24
  %26 = icmp eq i32 %25, 0
  br i1 %26, label %27, label %28

27:                                               ; preds = %22
  store i32 0, i32* %6, align 4
  br label %28

28:                                               ; preds = %27, %22
  br label %29

29:                                               ; preds = %28
  %30 = load i32, i32* %3, align 4
  %31 = add nsw i32 %30, 1
  store i32 %31, i32* %3, align 4
  br label %16

32:                                               ; preds = %16
  %33 = load i32, i32* %6, align 4
  %34 = icmp eq i32 %33, 1
  br i1 %34, label %35, label %42

35:                                               ; preds = %32
  %36 = load i32, i32* %2, align 4
  %37 = load i32, i32* %4, align 4
  %38 = sext i32 %37 to i64
  %39 = getelementptr inbounds [20000 x i32], [20000 x i32]* %9, i64 0, i64 %38
  store i32 %36, i32* %39, align 4
  %40 = load i32, i32* %4, align 4
  %41 = add nsw i32 %40, 1
  store i32 %41, i32* %4, align 4
  br label %42

42:                                               ; preds = %35, %32
  br label %43

43:                                               ; preds = %42
  %44 = load i32, i32* %2, align 4
  %45 = add nsw i32 %44, 1
  store i32 %45, i32* %2, align 4
  br label %12

46:                                               ; preds = %12
  %47 = call i32 (i8*, ...) @__isoc99_scanf(i8* getelementptr inbounds ([3 x i8], [3 x i8]* @.str, i64 0, i64 0), i32* %7)
  store i32 1, i32* %2, align 4
  br label %48

48:                                               ; preds = %92, %46
  %49 = load i32, i32* %2, align 4
  %50 = icmp slt i32 %49, 2000
  br i1 %50, label %51, label %95

51:                                               ; preds = %48
  %52 = load i32, i32* %7, align 4
  %53 = load i32, i32* %2, align 4
  %54 = sext i32 %53 to i64
  %55 = getelementptr inbounds [20000 x i32], [20000 x i32]* %9, i64 0, i64 %54
  %56 = load i32, i32* %55, align 4
  %57 = sub nsw i32 %52, %56
  store i32 %57, i32* %8, align 4
  %58 = load i32, i32* %2, align 4
  store i32 %58, i32* %5, align 4
  br label %59

59:                                               ; preds = %88, %51
  %60 = load i32, i32* %5, align 4
  %61 = icmp slt i32 %60, 2000
  br i1 %61, label %62, label %91

62:                                               ; preds = %59
  %63 = load i32, i32* %5, align 4
  %64 = sext i32 %63 to i64
  %65 = getelementptr inbounds [20000 x i32], [20000 x i32]* %9, i64 0, i64 %64
  %66 = load i32, i32* %65, align 4
  %67 = load i32, i32* %8, align 4
  %68 = icmp eq i32 %66, %67
  br i1 %68, label %69, label %79

69:                                               ; preds = %62
  %70 = load i32, i32* %2, align 4
  %71 = sext i32 %70 to i64
  %72 = getelementptr inbounds [20000 x i32], [20000 x i32]* %9, i64 0, i64 %71
  %73 = load i32, i32* %72, align 4
  %74 = load i32, i32* %5, align 4
  %75 = sext i32 %74 to i64
  %76 = getelementptr inbounds [20000 x i32], [20000 x i32]* %9, i64 0, i64 %75
  %77 = load i32, i32* %76, align 4
  %78 = call i32 (i8*, ...) @printf(i8* getelementptr inbounds ([7 x i8], [7 x i8]* @.str.1, i64 0, i64 0), i32 %73, i32 %77)
  br label %79

79:                                               ; preds = %69, %62
  %80 = load i32, i32* %5, align 4
  %81 = sext i32 %80 to i64
  %82 = getelementptr inbounds [20000 x i32], [20000 x i32]* %9, i64 0, i64 %81
  %83 = load i32, i32* %82, align 4
  %84 = load i32, i32* %8, align 4
  %85 = icmp sgt i32 %83, %84
  br i1 %85, label %86, label %87

86:                                               ; preds = %79
  br label %91

87:                                               ; preds = %79
  br label %88

88:                                               ; preds = %87
  %89 = load i32, i32* %5, align 4
  %90 = add nsw i32 %89, 1
  store i32 %90, i32* %5, align 4
  br label %59

91:                                               ; preds = %86, %59
  br label %92

92:                                               ; preds = %91
  %93 = load i32, i32* %2, align 4
  %94 = add nsw i32 %93, 1
  store i32 %94, i32* %2, align 4
  br label %48

95:                                               ; preds = %48
  ret i32 0
}

declare dso_local i32 @__isoc99_scanf(i8*, ...) #1

declare dso_local i32 @printf(i8*, ...) #1


!llvm.module.flags = !{!0}
!llvm.ident = !{!1}

!0 = !{i32 1, !"wchar_size", i32 4}
!1 = !{!"clang version 10.0.0-4ubuntu1 "}
